000006fd <get_flag>:
 6fd:	55                   	push   ebp
 6fe:	89 e5                	mov    ebp,esp
 700:	53                   	push   ebx
 701:	83 ec 04             	sub    esp,0x4
 704:	e8 f7 fe ff ff       	call   600 <__x86.get_pc_thunk.bx>
 709:	81 c3 a7 18 00 00    	add    ebx,0x18a7
 70f:	83 ec 0c             	sub    esp,0xc
 712:	8d 83 90 ea ff ff    	lea    eax,[ebx-0x1570]
 718:	50                   	push   eax
 719:	e8 22 fe ff ff       	call   540 <puts@plt>
 71e:	83 c4 10             	add    esp,0x10
 721:	83 ec 0c             	sub    esp,0xc
 724:	8d 83 91 ea ff ff    	lea    eax,[ebx-0x156f]
 72a:	50                   	push   eax
 72b:	e8 20 fe ff ff       	call   550 <system@plt>
 730:	83 c4 10             	add    esp,0x10
 733:	83 ec 0c             	sub    esp,0xc
 736:	8d 83 90 ea ff ff    	lea    eax,[ebx-0x1570]
 73c:	50                   	push   eax
 73d:	e8 fe fd ff ff       	call   540 <puts@plt>
 742:	83 c4 10             	add    esp,0x10
 745:	8b 83 44 00 00 00    	mov    eax,DWORD PTR [ebx+0x44]
 74b:	8b 00                	mov    eax,DWORD PTR [eax]
 74d:	83 ec 0c             	sub    esp,0xc
 750:	50                   	push   eax
 751:	e8 ca fd ff ff       	call   520 <fflush@plt>
 756:	83 c4 10             	add    esp,0x10
 759:	90                   	nop
 75a:	8b 5d fc             	mov    ebx,DWORD PTR [ebp-0x4]
 75d:	c9                   	leave  
 75e:	c3                   	ret    

0000075f <main>:
 75f:	8d 4c 24 04          	lea    ecx,[esp+0x4]
 763:	83 e4 f0             	and    esp,0xfffffff0
 766:	ff 71 fc             	push   DWORD PTR [ecx-0x4]
 769:	55                   	push   ebp
 76a:	89 e5                	mov    ebp,esp
 76c:	53                   	push   ebx
 76d:	51                   	push   ecx
 76e:	83 ec 10             	sub    esp,0x10
 771:	e8 8a fe ff ff       	call   600 <__x86.get_pc_thunk.bx>
 776:	81 c3 3a 18 00 00    	add    ebx,0x183a
 77c:	83 ec 0c             	sub    esp,0xc
 77f:	8d 83 90 ea ff ff    	lea    eax,[ebx-0x1570]
 785:	50                   	push   eax
 786:	e8 b5 fd ff ff       	call   540 <puts@plt>
 78b:	83 c4 10             	add    esp,0x10
 78e:	83 ec 0c             	sub    esp,0xc
 791:	8d 83 90 ea ff ff    	lea    eax,[ebx-0x1570]
 797:	50                   	push   eax
 798:	e8 a3 fd ff ff       	call   540 <puts@plt>
 79d:	83 c4 10             	add    esp,0x10
 7a0:	83 ec 0c             	sub    esp,0xc
 7a3:	8d 83 a0 ea ff ff    	lea    eax,[ebx-0x1560]
 7a9:	50                   	push   eax
 7aa:	e8 91 fd ff ff       	call   540 <puts@plt>
 7af:	83 c4 10             	add    esp,0x10
 7b2:	83 ec 0c             	sub    esp,0xc
 7b5:	8d 83 f0 ea ff ff    	lea    eax,[ebx-0x1510]
 7bb:	50                   	push   eax
 7bc:	e8 7f fd ff ff       	call   540 <puts@plt>
 7c1:	83 c4 10             	add    esp,0x10
 7c4:	83 ec 0c             	sub    esp,0xc
 7c7:	8d 83 40 eb ff ff    	lea    eax,[ebx-0x14c0]
 7cd:	50                   	push   eax
 7ce:	e8 6d fd ff ff       	call   540 <puts@plt>
 7d3:	83 c4 10             	add    esp,0x10
 7d6:	83 ec 0c             	sub    esp,0xc
 7d9:	8d 83 90 eb ff ff    	lea    eax,[ebx-0x1470]
 7df:	50                   	push   eax
 7e0:	e8 5b fd ff ff       	call   540 <puts@plt>
 7e5:	83 c4 10             	add    esp,0x10
 7e8:	83 ec 0c             	sub    esp,0xc
 7eb:	8d 83 e0 eb ff ff    	lea    eax,[ebx-0x1420]
 7f1:	50                   	push   eax
 7f2:	e8 49 fd ff ff       	call   540 <puts@plt>
 7f7:	83 c4 10             	add    esp,0x10
 7fa:	83 ec 0c             	sub    esp,0xc
 7fd:	8d 83 30 ec ff ff    	lea    eax,[ebx-0x13d0]
 803:	50                   	push   eax
 804:	e8 37 fd ff ff       	call   540 <puts@plt>
 809:	83 c4 10             	add    esp,0x10
 80c:	83 ec 0c             	sub    esp,0xc
 80f:	8d 83 a0 ea ff ff    	lea    eax,[ebx-0x1560]
 815:	50                   	push   eax
 816:	e8 25 fd ff ff       	call   540 <puts@plt>
 81b:	83 c4 10             	add    esp,0x10
 81e:	83 ec 0c             	sub    esp,0xc
 821:	8d 83 90 ea ff ff    	lea    eax,[ebx-0x1570]
 827:	50                   	push   eax
 828:	e8 13 fd ff ff       	call   540 <puts@plt>
 82d:	83 c4 10             	add    esp,0x10
 830:	83 ec 0c             	sub    esp,0xc
 833:	8d 83 90 ea ff ff    	lea    eax,[ebx-0x1570]
 839:	50                   	push   eax
 83a:	e8 01 fd ff ff       	call   540 <puts@plt>
 83f:	83 c4 10             	add    esp,0x10
 842:	83 ec 0c             	sub    esp,0xc
 845:	8d 83 80 ec ff ff    	lea    eax,[ebx-0x1380]
 84b:	50                   	push   eax
 84c:	e8 ef fc ff ff       	call   540 <puts@plt>
 851:	83 c4 10             	add    esp,0x10
 854:	83 ec 0c             	sub    esp,0xc
 857:	8d 83 b1 ec ff ff    	lea    eax,[ebx-0x134f]
 85d:	50                   	push   eax
 85e:	e8 dd fc ff ff       	call   540 <puts@plt>
 863:	83 c4 10             	add    esp,0x10
 866:	83 ec 0c             	sub    esp,0xc
 869:	8d 83 90 ea ff ff    	lea    eax,[ebx-0x1570]
 86f:	50                   	push   eax
 870:	e8 cb fc ff ff       	call   540 <puts@plt>
 875:	83 c4 10             	add    esp,0x10
 878:	8b 83 44 00 00 00    	mov    eax,DWORD PTR [ebx+0x44]
 87e:	8b 00                	mov    eax,DWORD PTR [eax]
 880:	83 ec 0c             	sub    esp,0xc
 883:	50                   	push   eax
 884:	e8 97 fc ff ff       	call   520 <fflush@plt>
 889:	83 c4 10             	add    esp,0x10
 88c:	83 ec 0c             	sub    esp,0xc
 88f:	6a 00                	push   0x0
 891:	e8 9a fc ff ff       	call   530 <time@plt>
 896:	83 c4 10             	add    esp,0x10
 899:	89 45 f0             	mov    DWORD PTR [ebp-0x10],eax
 89c:	8b 45 f0             	mov    eax,DWORD PTR [ebp-0x10]
 89f:	83 ec 0c             	sub    esp,0xc
 8a2:	50                   	push   eax
 
  // SEEDS THE RANDOM FUNCTION USING TIME - EXPLOITABLE!!!
 
 8a3:	e8 c8 fc ff ff       	call   570 <srand@plt>
 
 // ^^^^^^^^^^^^^^^^^^^^^^^^^^^^^^^^^^^^^^^^^^^^^^^^^^^^^
 
 8a8:	83 c4 10             	add    esp,0x10
 8ab:	c7 45 f4 01 00 00 00 	mov    DWORD PTR [ebp-0xc],0x1
 8b2:	e9 be 00 00 00       	jmp    975 <main+0x216>
 8b7:	83 ec 08             	sub    esp,0x8
 8ba:	ff 75 f4             	push   DWORD PTR [ebp-0xc]
 8bd:	8d 83 c8 ec ff ff    	lea    eax,[ebx-0x1338]
 8c3:	50                   	push   eax
 8c4:	e8 47 fc ff ff       	call   510 <printf@plt>
 8c9:	83 c4 10             	add    esp,0x10
 8cc:	83 ec 0c             	sub    esp,0xc
 8cf:	8d 83 90 ea ff ff    	lea    eax,[ebx-0x1570]
 8d5:	50                   	push   eax
 8d6:	e8 65 fc ff ff       	call   540 <puts@plt>
 8db:	83 c4 10             	add    esp,0x10
 8de:	e8 ad fc ff ff       	call   590 <rand@plt>
 
 // Gets a random number, then ANDS it with 1111 to only get the first 15 bits
 // Random number from 0 to 15 (inclusive)
 // Must guess correctly 30 times
 // Exploit by writing a C program that also uses srand with the same procedure to gen random numbers
 
 8e3:	83 e0 0f             	and    eax,0xf
 8e6:	89 45 ec             	mov    DWORD PTR [ebp-0x14],eax
 8e9:	83 ec 0c             	sub    esp,0xc
 8ec:	8d 83 d7 ec ff ff    	lea    eax,[ebx-0x1329]
 8f2:	50                   	push   eax
 8f3:	e8 18 fc ff ff       	call   510 <printf@plt>
 8f8:	83 c4 10             	add    esp,0x10
 8fb:	8b 83 44 00 00 00    	mov    eax,DWORD PTR [ebx+0x44]
 901:	8b 00                	mov    eax,DWORD PTR [eax]
 903:	83 ec 0c             	sub    esp,0xc
 906:	50                   	push   eax
 907:	e8 14 fc ff ff       	call   520 <fflush@plt>
 90c:	83 c4 10             	add    esp,0x10
 90f:	83 ec 08             	sub    esp,0x8
 912:	8d 45 e8             	lea    eax,[ebp-0x18]
 915:	50                   	push   eax
 916:	8d 83 ea ec ff ff    	lea    eax,[ebx-0x1316]
 91c:	50                   	push   eax
 91d:	e8 7e fc ff ff       	call   5a0 <__isoc99_scanf@plt>
 922:	83 c4 10             	add    esp,0x10
 925:	8b 83 40 00 00 00    	mov    eax,DWORD PTR [ebx+0x40]
 92b:	8b 00                	mov    eax,DWORD PTR [eax]
 92d:	83 ec 0c             	sub    esp,0xc
 930:	50                   	push   eax
 931:	e8 ea fb ff ff       	call   520 <fflush@plt>
 936:	83 c4 10             	add    esp,0x10
 939:	8b 45 e8             	mov    eax,DWORD PTR [ebp-0x18]
 93c:	39 45 ec             	cmp    DWORD PTR [ebp-0x14],eax
 93f:	74 30                	je     971 <main+0x212>
 941:	83 ec 0c             	sub    esp,0xc
 944:	8d 83 f0 ec ff ff    	lea    eax,[ebx-0x1310]
 94a:	50                   	push   eax
 94b:	e8 f0 fb ff ff       	call   540 <puts@plt>
 950:	83 c4 10             	add    esp,0x10
 953:	8b 83 44 00 00 00    	mov    eax,DWORD PTR [ebx+0x44]
 959:	8b 00                	mov    eax,DWORD PTR [eax]
 95b:	83 ec 0c             	sub    esp,0xc
 95e:	50                   	push   eax
 95f:	e8 bc fb ff ff       	call   520 <fflush@plt>
 964:	83 c4 10             	add    esp,0x10
 967:	83 ec 0c             	sub    esp,0xc
 96a:	6a ff                	push   0xffffffff
 96c:	e8 ef fb ff ff       	call   560 <exit@plt>
 971:	83 45 f4 01          	add    DWORD PTR [ebp-0xc],0x1
 975:	83 7d f4 1e          	cmp    DWORD PTR [ebp-0xc],0x1e
 979:	0f 8e 38 ff ff ff    	jle    8b7 <main+0x158>
 97f:	83 ec 0c             	sub    esp,0xc
 982:	8d 83 18 ed ff ff    	lea    eax,[ebx-0x12e8]
 988:	50                   	push   eax
 989:	e8 b2 fb ff ff       	call   540 <puts@plt>
 98e:	83 c4 10             	add    esp,0x10
 991:	e8 67 fd ff ff       	call   6fd <get_flag>
 996:	8b 83 44 00 00 00    	mov    eax,DWORD PTR [ebx+0x44]
 99c:	8b 00                	mov    eax,DWORD PTR [eax]
 99e:	83 ec 0c             	sub    esp,0xc
 9a1:	50                   	push   eax
 9a2:	e8 79 fb ff ff       	call   520 <fflush@plt>
 9a7:	83 c4 10             	add    esp,0x10
 9aa:	b8 00 00 00 00       	mov    eax,0x0
 9af:	8d 65 f8             	lea    esp,[ebp-0x8]
 9b2:	59                   	pop    ecx
 9b3:	5b                   	pop    ebx
 9b4:	5d                   	pop    ebp
 9b5:	8d 61 fc             	lea    esp,[ecx-0x4]
 9b8:	c3                   	ret    
 9b9:	66 90                	xchg   ax,ax
 9bb:	66 90                	xchg   ax,ax
 9bd:	66 90                	xchg   ax,ax
 9bf:	90                   	nop