
ghostdiary:     file format elf64-x86-64


Disassembly of section .init:

0000000000000858 <.init>:
 858:	48 83 ec 08          	sub    rsp,0x8
 85c:	48 8b 05 85 17 20 00 	mov    rax,QWORD PTR [rip+0x201785]        # 201fe8 <__cxa_finalize@plt+0x2016a8>
 863:	48 85 c0             	test   rax,rax
 866:	74 02                	je     86a <free@plt-0x16>
 868:	ff d0                	call   rax
 86a:	48 83 c4 08          	add    rsp,0x8
 86e:	c3                   	ret    

Disassembly of section .plt:

0000000000000870 <free@plt-0x10>:
 870:	ff 35 f2 16 20 00    	push   QWORD PTR [rip+0x2016f2]        # 201f68 <__cxa_finalize@plt+0x201628>
 876:	ff 25 f4 16 20 00    	jmp    QWORD PTR [rip+0x2016f4]        # 201f70 <__cxa_finalize@plt+0x201630>
 87c:	0f 1f 40 00          	nop    DWORD PTR [rax+0x0]

0000000000000880 <free@plt>:
 880:	ff 25 f2 16 20 00    	jmp    QWORD PTR [rip+0x2016f2]        # 201f78 <__cxa_finalize@plt+0x201638>
 886:	68 00 00 00 00       	push   0x0
 88b:	e9 e0 ff ff ff       	jmp    870 <free@plt-0x10>

0000000000000890 <puts@plt>:
 890:	ff 25 ea 16 20 00    	jmp    QWORD PTR [rip+0x2016ea]        # 201f80 <__cxa_finalize@plt+0x201640>
 896:	68 01 00 00 00       	push   0x1
 89b:	e9 d0 ff ff ff       	jmp    870 <free@plt-0x10>

00000000000008a0 <__stack_chk_fail@plt>:
 8a0:	ff 25 e2 16 20 00    	jmp    QWORD PTR [rip+0x2016e2]        # 201f88 <__cxa_finalize@plt+0x201648>
 8a6:	68 02 00 00 00       	push   0x2
 8ab:	e9 c0 ff ff ff       	jmp    870 <free@plt-0x10>

00000000000008b0 <printf@plt>:
 8b0:	ff 25 da 16 20 00    	jmp    QWORD PTR [rip+0x2016da]        # 201f90 <__cxa_finalize@plt+0x201650>
 8b6:	68 03 00 00 00       	push   0x3
 8bb:	e9 b0 ff ff ff       	jmp    870 <free@plt-0x10>

00000000000008c0 <alarm@plt>:
 8c0:	ff 25 d2 16 20 00    	jmp    QWORD PTR [rip+0x2016d2]        # 201f98 <__cxa_finalize@plt+0x201658>
 8c6:	68 04 00 00 00       	push   0x4
 8cb:	e9 a0 ff ff ff       	jmp    870 <free@plt-0x10>

00000000000008d0 <read@plt>:
 8d0:	ff 25 ca 16 20 00    	jmp    QWORD PTR [rip+0x2016ca]        # 201fa0 <__cxa_finalize@plt+0x201660>
 8d6:	68 05 00 00 00       	push   0x5
 8db:	e9 90 ff ff ff       	jmp    870 <free@plt-0x10>

00000000000008e0 <getchar@plt>:
 8e0:	ff 25 c2 16 20 00    	jmp    QWORD PTR [rip+0x2016c2]        # 201fa8 <__cxa_finalize@plt+0x201668>
 8e6:	68 06 00 00 00       	push   0x6
 8eb:	e9 80 ff ff ff       	jmp    870 <free@plt-0x10>

00000000000008f0 <signal@plt>:
 8f0:	ff 25 ba 16 20 00    	jmp    QWORD PTR [rip+0x2016ba]        # 201fb0 <__cxa_finalize@plt+0x201670>
 8f6:	68 07 00 00 00       	push   0x7
 8fb:	e9 70 ff ff ff       	jmp    870 <free@plt-0x10>

0000000000000900 <malloc@plt>:
 900:	ff 25 b2 16 20 00    	jmp    QWORD PTR [rip+0x2016b2]        # 201fb8 <__cxa_finalize@plt+0x201678>
 906:	68 08 00 00 00       	push   0x8
 90b:	e9 60 ff ff ff       	jmp    870 <free@plt-0x10>

0000000000000910 <setvbuf@plt>:
 910:	ff 25 aa 16 20 00    	jmp    QWORD PTR [rip+0x2016aa]        # 201fc0 <__cxa_finalize@plt+0x201680>
 916:	68 09 00 00 00       	push   0x9
 91b:	e9 50 ff ff ff       	jmp    870 <free@plt-0x10>

0000000000000920 <__isoc99_scanf@plt>:
 920:	ff 25 a2 16 20 00    	jmp    QWORD PTR [rip+0x2016a2]        # 201fc8 <__cxa_finalize@plt+0x201688>
 926:	68 0a 00 00 00       	push   0xa
 92b:	e9 40 ff ff ff       	jmp    870 <free@plt-0x10>

0000000000000930 <exit@plt>:
 930:	ff 25 9a 16 20 00    	jmp    QWORD PTR [rip+0x20169a]        # 201fd0 <__cxa_finalize@plt+0x201690>
 936:	68 0b 00 00 00       	push   0xb
 93b:	e9 30 ff ff ff       	jmp    870 <free@plt-0x10>

Disassembly of section .plt.got:

0000000000000940 <__cxa_finalize@plt>:
 940:	ff 25 b2 16 20 00    	jmp    QWORD PTR [rip+0x2016b2]        # 201ff8 <__cxa_finalize@plt+0x2016b8>
 946:	66 90                	xchg   ax,ax

Disassembly of section .text:

0000000000000950 <.text>:
     950:	31 ed                	xor    ebp,ebp
     952:	49 89 d1             	mov    r9,rdx
     955:	5e                   	pop    rsi
     956:	48 89 e2             	mov    rdx,rsp
     959:	48 83 e4 f0          	and    rsp,0xfffffffffffffff0
     95d:	50                   	push   rax
     95e:	54                   	push   rsp
     95f:	4c 8d 05 da 07 00 00 	lea    r8,[rip+0x7da]        # 1140 <__cxa_finalize@plt+0x800>
     966:	48 8d 0d 63 07 00 00 	lea    rcx,[rip+0x763]        # 10d0 <__cxa_finalize@plt+0x790>
     96d:	48 8d 3d 13 06 00 00 	lea    rdi,[rip+0x613]        # f87 <__cxa_finalize@plt+0x647>
     974:	ff 15 66 16 20 00    	call   QWORD PTR [rip+0x201666]        # 201fe0 <__cxa_finalize@plt+0x2016a0>
     97a:	f4                   	hlt    
     97b:	0f 1f 44 00 00       	nop    DWORD PTR [rax+rax*1+0x0]
     980:	48 8d 3d 89 16 20 00 	lea    rdi,[rip+0x201689]        # 202010 <__cxa_finalize@plt+0x2016d0>
     987:	55                   	push   rbp
     988:	48 8d 05 81 16 20 00 	lea    rax,[rip+0x201681]        # 202010 <__cxa_finalize@plt+0x2016d0>
     98f:	48 39 f8             	cmp    rax,rdi
     992:	48 89 e5             	mov    rbp,rsp
     995:	74 19                	je     9b0 <__cxa_finalize@plt+0x70>
     997:	48 8b 05 3a 16 20 00 	mov    rax,QWORD PTR [rip+0x20163a]        # 201fd8 <__cxa_finalize@plt+0x201698>
     99e:	48 85 c0             	test   rax,rax
     9a1:	74 0d                	je     9b0 <__cxa_finalize@plt+0x70>
     9a3:	5d                   	pop    rbp
     9a4:	ff e0                	jmp    rax
     9a6:	66 2e 0f 1f 84 00 00 	nop    WORD PTR cs:[rax+rax*1+0x0]
     9ad:	00 00 00 
     9b0:	5d                   	pop    rbp
     9b1:	c3                   	ret    
     9b2:	0f 1f 40 00          	nop    DWORD PTR [rax+0x0]
     9b6:	66 2e 0f 1f 84 00 00 	nop    WORD PTR cs:[rax+rax*1+0x0]
     9bd:	00 00 00 
     9c0:	48 8d 3d 49 16 20 00 	lea    rdi,[rip+0x201649]        # 202010 <__cxa_finalize@plt+0x2016d0>
     9c7:	48 8d 35 42 16 20 00 	lea    rsi,[rip+0x201642]        # 202010 <__cxa_finalize@plt+0x2016d0>
     9ce:	55                   	push   rbp
     9cf:	48 29 fe             	sub    rsi,rdi
     9d2:	48 89 e5             	mov    rbp,rsp
     9d5:	48 c1 fe 03          	sar    rsi,0x3
     9d9:	48 89 f0             	mov    rax,rsi
     9dc:	48 c1 e8 3f          	shr    rax,0x3f
     9e0:	48 01 c6             	add    rsi,rax
     9e3:	48 d1 fe             	sar    rsi,1
     9e6:	74 18                	je     a00 <__cxa_finalize@plt+0xc0>
     9e8:	48 8b 05 01 16 20 00 	mov    rax,QWORD PTR [rip+0x201601]        # 201ff0 <__cxa_finalize@plt+0x2016b0>
     9ef:	48 85 c0             	test   rax,rax
     9f2:	74 0c                	je     a00 <__cxa_finalize@plt+0xc0>
     9f4:	5d                   	pop    rbp
     9f5:	ff e0                	jmp    rax
     9f7:	66 0f 1f 84 00 00 00 	nop    WORD PTR [rax+rax*1+0x0]
     9fe:	00 00 
     a00:	5d                   	pop    rbp
     a01:	c3                   	ret    
     a02:	0f 1f 40 00          	nop    DWORD PTR [rax+0x0]
     a06:	66 2e 0f 1f 84 00 00 	nop    WORD PTR cs:[rax+rax*1+0x0]
     a0d:	00 00 00 
     a10:	80 3d 31 16 20 00 00 	cmp    BYTE PTR [rip+0x201631],0x0        # 202048 <stderr@@GLIBC_2.2.5+0x8>
     a17:	75 2f                	jne    a48 <__cxa_finalize@plt+0x108>
     a19:	48 83 3d d7 15 20 00 	cmp    QWORD PTR [rip+0x2015d7],0x0        # 201ff8 <__cxa_finalize@plt+0x2016b8>
     a20:	00 
     a21:	55                   	push   rbp
     a22:	48 89 e5             	mov    rbp,rsp
     a25:	74 0c                	je     a33 <__cxa_finalize@plt+0xf3>
     a27:	48 8b 3d da 15 20 00 	mov    rdi,QWORD PTR [rip+0x2015da]        # 202008 <__cxa_finalize@plt+0x2016c8>
     a2e:	e8 0d ff ff ff       	call   940 <__cxa_finalize@plt>
     a33:	e8 48 ff ff ff       	call   980 <__cxa_finalize@plt+0x40>
     a38:	c6 05 09 16 20 00 01 	mov    BYTE PTR [rip+0x201609],0x1        # 202048 <stderr@@GLIBC_2.2.5+0x8>
     a3f:	5d                   	pop    rbp
     a40:	c3                   	ret    
     a41:	0f 1f 80 00 00 00 00 	nop    DWORD PTR [rax+0x0]
     a48:	f3 c3                	repz ret 
     a4a:	66 0f 1f 44 00 00    	nop    WORD PTR [rax+rax*1+0x0]
     a50:	55                   	push   rbp
     a51:	48 89 e5             	mov    rbp,rsp
     a54:	5d                   	pop    rbp
     a55:	e9 66 ff ff ff       	jmp    9c0 <__cxa_finalize@plt+0x80>
     a5a:	55                   	push   rbp
     a5b:	48 89 e5             	mov    rbp,rsp
     a5e:	48 83 ec 20          	sub    rsp,0x20
     a62:	48 89 7d e8          	mov    QWORD PTR [rbp-0x18],rdi
     a66:	89 75 e4             	mov    DWORD PTR [rbp-0x1c],esi
     a69:	64 48 8b 04 25 28 00 	mov    rax,QWORD PTR fs:0x28
     a70:	00 00 
     a72:	48 89 45 f8          	mov    QWORD PTR [rbp-0x8],rax
     a76:	31 c0                	xor    eax,eax
     a78:	c7 45 f4 00 00 00 00 	mov    DWORD PTR [rbp-0xc],0x0
     a7f:	83 7d e4 00          	cmp    DWORD PTR [rbp-0x1c],0x0
     a83:	74 6f                	je     af4 <__cxa_finalize@plt+0x1b4>
     a85:	eb 52                	jmp    ad9 <__cxa_finalize@plt+0x199>
     a87:	48 8d 45 f3          	lea    rax,[rbp-0xd]
     a8b:	ba 01 00 00 00       	mov    edx,0x1
     a90:	48 89 c6             	mov    rsi,rax
     a93:	bf 00 00 00 00       	mov    edi,0x0
     a98:	e8 33 fe ff ff       	call   8d0 <read@plt>
     a9d:	48 83 f8 01          	cmp    rax,0x1
     aa1:	74 16                	je     ab9 <__cxa_finalize@plt+0x179>
     aa3:	48 8d 3d aa 06 00 00 	lea    rdi,[rip+0x6aa]        # 1154 <__cxa_finalize@plt+0x814>
     aaa:	e8 e1 fd ff ff       	call   890 <puts@plt>
     aaf:	bf ff ff ff ff       	mov    edi,0xffffffff
     ab4:	e8 77 fe ff ff       	call   930 <exit@plt>
     ab9:	0f b6 45 f3          	movzx  eax,BYTE PTR [rbp-0xd]
     abd:	3c 0a                	cmp    al,0xa
     abf:	74 22                	je     ae3 <__cxa_finalize@plt+0x1a3>
     ac1:	8b 45 f4             	mov    eax,DWORD PTR [rbp-0xc]
     ac4:	8d 50 01             	lea    edx,[rax+0x1]
     ac7:	89 55 f4             	mov    DWORD PTR [rbp-0xc],edx
     aca:	89 c2                	mov    edx,eax
     acc:	48 8b 45 e8          	mov    rax,QWORD PTR [rbp-0x18]
     ad0:	48 01 c2             	add    rdx,rax
     ad3:	0f b6 45 f3          	movzx  eax,BYTE PTR [rbp-0xd]
     ad7:	88 02                	mov    BYTE PTR [rdx],al
     ad9:	8b 45 f4             	mov    eax,DWORD PTR [rbp-0xc]
     adc:	3b 45 e4             	cmp    eax,DWORD PTR [rbp-0x1c]
     adf:	75 a6                	jne    a87 <__cxa_finalize@plt+0x147>
     ae1:	eb 01                	jmp    ae4 <__cxa_finalize@plt+0x1a4>
     ae3:	90                   	nop
     ae4:	8b 55 f4             	mov    edx,DWORD PTR [rbp-0xc]
     ae7:	48 8b 45 e8          	mov    rax,QWORD PTR [rbp-0x18]
     aeb:	48 01 d0             	add    rax,rdx
     aee:	c6 00 00             	mov    BYTE PTR [rax],0x0
     af1:	90                   	nop
     af2:	eb 01                	jmp    af5 <__cxa_finalize@plt+0x1b5>
     af4:	90                   	nop
     af5:	48 8b 45 f8          	mov    rax,QWORD PTR [rbp-0x8]
     af9:	64 48 33 04 25 28 00 	xor    rax,QWORD PTR fs:0x28
     b00:	00 00 
     b02:	74 05                	je     b09 <__cxa_finalize@plt+0x1c9>
     b04:	e8 97 fd ff ff       	call   8a0 <__stack_chk_fail@plt>
     b09:	c9                   	leave  
     b0a:	c3                   	ret    
     b0b:	55                   	push   rbp
     b0c:	48 89 e5             	mov    rbp,rsp
     b0f:	48 83 ec 20          	sub    rsp,0x20
     b13:	64 48 8b 04 25 28 00 	mov    rax,QWORD PTR fs:0x28
     b1a:	00 00 
     b1c:	48 89 45 f8          	mov    QWORD PTR [rbp-0x8],rax
     b20:	31 c0                	xor    eax,eax
     b22:	c7 45 f4 00 00 00 00 	mov    DWORD PTR [rbp-0xc],0x0
     b29:	c7 45 f4 00 00 00 00 	mov    DWORD PTR [rbp-0xc],0x0
     b30:	eb 1e                	jmp    b50 <__cxa_finalize@plt+0x210>
     b32:	8b 45 f4             	mov    eax,DWORD PTR [rbp-0xc]
     b35:	48 c1 e0 04          	shl    rax,0x4
     b39:	48 89 c2             	mov    rdx,rax
     b3c:	48 8d 05 1d 15 20 00 	lea    rax,[rip+0x20151d]        # 202060 <stderr@@GLIBC_2.2.5+0x20>
     b43:	48 8b 04 02          	mov    rax,QWORD PTR [rdx+rax*1]
     b47:	48 85 c0             	test   rax,rax
     b4a:	74 0c                	je     b58 <__cxa_finalize@plt+0x218>
     b4c:	83 45 f4 01          	add    DWORD PTR [rbp-0xc],0x1
     b50:	83 7d f4 13          	cmp    DWORD PTR [rbp-0xc],0x13
     b54:	76 dc                	jbe    b32 <__cxa_finalize@plt+0x1f2>
     b56:	eb 01                	jmp    b59 <__cxa_finalize@plt+0x219>
     b58:	90                   	nop
     b59:	83 7d f4 14          	cmp    DWORD PTR [rbp-0xc],0x14
     b5d:	75 11                	jne    b70 <__cxa_finalize@plt+0x230>
     b5f:	48 8d 3d f9 05 00 00 	lea    rdi,[rip+0x5f9]        # 115f <__cxa_finalize@plt+0x81f>
     b66:	e8 25 fd ff ff       	call   890 <puts@plt>
     b6b:	e9 75 01 00 00       	jmp    ce5 <__cxa_finalize@plt+0x3a5>
     b70:	48 8d 3d f5 05 00 00 	lea    rdi,[rip+0x5f5]        # 116c <__cxa_finalize@plt+0x82c>
     b77:	e8 14 fd ff ff       	call   890 <puts@plt>
     b7c:	48 8d 3d ff 05 00 00 	lea    rdi,[rip+0x5ff]        # 1182 <__cxa_finalize@plt+0x842>
     b83:	e8 08 fd ff ff       	call   890 <puts@plt>
     b88:	48 8d 3d 0b 06 00 00 	lea    rdi,[rip+0x60b]        # 119a <__cxa_finalize@plt+0x85a>
     b8f:	b8 00 00 00 00       	mov    eax,0x0
     b94:	e8 17 fd ff ff       	call   8b0 <printf@plt>
     b99:	48 8d 45 f0          	lea    rax,[rbp-0x10]
     b9d:	48 89 c6             	mov    rsi,rax
     ba0:	48 8d 3d f6 05 00 00 	lea    rdi,[rip+0x5f6]        # 119d <__cxa_finalize@plt+0x85d>
     ba7:	b8 00 00 00 00       	mov    eax,0x0
     bac:	e8 6f fd ff ff       	call   920 <__isoc99_scanf@plt>
     bb1:	8b 45 f0             	mov    eax,DWORD PTR [rbp-0x10]
     bb4:	83 f8 01             	cmp    eax,0x1
     bb7:	74 0a                	je     bc3 <__cxa_finalize@plt+0x283>
     bb9:	83 f8 02             	cmp    eax,0x2
     bbc:	74 49                	je     c07 <__cxa_finalize@plt+0x2c7>
     bbe:	e9 22 01 00 00       	jmp    ce5 <__cxa_finalize@plt+0x3a5>
     bc3:	48 8d 3d d6 05 00 00 	lea    rdi,[rip+0x5d6]        # 11a0 <__cxa_finalize@plt+0x860>
     bca:	b8 00 00 00 00       	mov    eax,0x0
     bcf:	e8 dc fc ff ff       	call   8b0 <printf@plt>
     bd4:	48 8d 45 ec          	lea    rax,[rbp-0x14]
     bd8:	48 89 c6             	mov    rsi,rax
     bdb:	48 8d 3d bb 05 00 00 	lea    rdi,[rip+0x5bb]        # 119d <__cxa_finalize@plt+0x85d>
     be2:	b8 00 00 00 00       	mov    eax,0x0
     be7:	e8 34 fd ff ff       	call   920 <__isoc99_scanf@plt>
     bec:	8b 45 ec             	mov    eax,DWORD PTR [rbp-0x14]
     bef:	3d f0 00 00 00       	cmp    eax,0xf0
     bf4:	76 6a                	jbe    c60 <__cxa_finalize@plt+0x320>
     bf6:	48 8d 3d aa 05 00 00 	lea    rdi,[rip+0x5aa]        # 11a7 <__cxa_finalize@plt+0x867>
     bfd:	e8 8e fc ff ff       	call   890 <puts@plt>
     c02:	e9 9e 00 00 00       	jmp    ca5 <__cxa_finalize@plt+0x365>
     c07:	48 8d 3d 92 05 00 00 	lea    rdi,[rip+0x592]        # 11a0 <__cxa_finalize@plt+0x860>
     c0e:	b8 00 00 00 00       	mov    eax,0x0
     c13:	e8 98 fc ff ff       	call   8b0 <printf@plt>
     c18:	48 8d 45 ec          	lea    rax,[rbp-0x14]
     c1c:	48 89 c6             	mov    rsi,rax
     c1f:	48 8d 3d 77 05 00 00 	lea    rdi,[rip+0x577]        # 119d <__cxa_finalize@plt+0x85d>
     c26:	b8 00 00 00 00       	mov    eax,0x0
     c2b:	e8 f0 fc ff ff       	call   920 <__isoc99_scanf@plt>
     c30:	8b 45 ec             	mov    eax,DWORD PTR [rbp-0x14]
     c33:	3d 0f 01 00 00       	cmp    eax,0x10f
     c38:	77 0e                	ja     c48 <__cxa_finalize@plt+0x308>
     c3a:	48 8d 3d 7f 05 00 00 	lea    rdi,[rip+0x57f]        # 11c0 <__cxa_finalize@plt+0x880>
     c41:	e8 4a fc ff ff       	call   890 <puts@plt>
     c46:	eb 5d                	jmp    ca5 <__cxa_finalize@plt+0x365>
     c48:	8b 45 ec             	mov    eax,DWORD PTR [rbp-0x14]
     c4b:	3d e0 01 00 00       	cmp    eax,0x1e0
     c50:	76 11                	jbe    c63 <__cxa_finalize@plt+0x323>
     c52:	48 8d 3d 7d 05 00 00 	lea    rdi,[rip+0x57d]        # 11d6 <__cxa_finalize@plt+0x896>
     c59:	e8 32 fc ff ff       	call   890 <puts@plt>
     c5e:	eb 45                	jmp    ca5 <__cxa_finalize@plt+0x365>
     c60:	90                   	nop
     c61:	eb 01                	jmp    c64 <__cxa_finalize@plt+0x324>
     c63:	90                   	nop
     c64:	8b 45 ec             	mov    eax,DWORD PTR [rbp-0x14]
     c67:	89 c0                	mov    eax,eax
     c69:	48 89 c7             	mov    rdi,rax
     c6c:	e8 8f fc ff ff       	call   900 <malloc@plt>
     c71:	48 89 c1             	mov    rcx,rax
     c74:	8b 45 f4             	mov    eax,DWORD PTR [rbp-0xc]
     c77:	48 c1 e0 04          	shl    rax,0x4
     c7b:	48 89 c2             	mov    rdx,rax
     c7e:	48 8d 05 db 13 20 00 	lea    rax,[rip+0x2013db]        # 202060 <stderr@@GLIBC_2.2.5+0x20>
     c85:	48 89 0c 02          	mov    QWORD PTR [rdx+rax*1],rcx
     c89:	8b 45 f4             	mov    eax,DWORD PTR [rbp-0xc]
     c8c:	48 c1 e0 04          	shl    rax,0x4
     c90:	48 89 c2             	mov    rdx,rax
     c93:	48 8d 05 c6 13 20 00 	lea    rax,[rip+0x2013c6]        # 202060 <stderr@@GLIBC_2.2.5+0x20>
     c9a:	48 8b 04 02          	mov    rax,QWORD PTR [rdx+rax*1]
     c9e:	48 85 c0             	test   rax,rax
     ca1:	74 07                	je     caa <__cxa_finalize@plt+0x36a>
     ca3:	eb 13                	jmp    cb8 <__cxa_finalize@plt+0x378>
     ca5:	e9 de fe ff ff       	jmp    b88 <__cxa_finalize@plt+0x248>
     caa:	48 8d 3d 42 05 00 00 	lea    rdi,[rip+0x542]        # 11f3 <__cxa_finalize@plt+0x8b3>
     cb1:	e8 da fb ff ff       	call   890 <puts@plt>
     cb6:	eb 2d                	jmp    ce5 <__cxa_finalize@plt+0x3a5>
     cb8:	8b 55 ec             	mov    edx,DWORD PTR [rbp-0x14]
     cbb:	8b 45 f4             	mov    eax,DWORD PTR [rbp-0xc]
     cbe:	48 c1 e0 04          	shl    rax,0x4
     cc2:	48 89 c1             	mov    rcx,rax
     cc5:	48 8d 05 9c 13 20 00 	lea    rax,[rip+0x20139c]        # 202068 <stderr@@GLIBC_2.2.5+0x28>
     ccc:	89 14 01             	mov    DWORD PTR [rcx+rax*1],edx
     ccf:	8b 45 f4             	mov    eax,DWORD PTR [rbp-0xc]
     cd2:	89 c6                	mov    esi,eax
     cd4:	48 8d 3d 2a 05 00 00 	lea    rdi,[rip+0x52a]        # 1205 <__cxa_finalize@plt+0x8c5>
     cdb:	b8 00 00 00 00       	mov    eax,0x0
     ce0:	e8 cb fb ff ff       	call   8b0 <printf@plt>
     ce5:	48 8b 45 f8          	mov    rax,QWORD PTR [rbp-0x8]
     ce9:	64 48 33 04 25 28 00 	xor    rax,QWORD PTR fs:0x28
     cf0:	00 00 
     cf2:	74 05                	je     cf9 <__cxa_finalize@plt+0x3b9>
     cf4:	e8 a7 fb ff ff       	call   8a0 <__stack_chk_fail@plt>
     cf9:	c9                   	leave  
     cfa:	c3                   	ret    
     cfb:	55                   	push   rbp
     cfc:	48 89 e5             	mov    rbp,rsp
     cff:	48 83 ec 10          	sub    rsp,0x10
     d03:	64 48 8b 04 25 28 00 	mov    rax,QWORD PTR fs:0x28
     d0a:	00 00 
     d0c:	48 89 45 f8          	mov    QWORD PTR [rbp-0x8],rax
     d10:	31 c0                	xor    eax,eax
     d12:	48 8d 3d f6 04 00 00 	lea    rdi,[rip+0x4f6]        # 120f <__cxa_finalize@plt+0x8cf>
     d19:	b8 00 00 00 00       	mov    eax,0x0
     d1e:	e8 8d fb ff ff       	call   8b0 <printf@plt>
     d23:	48 8d 45 f4          	lea    rax,[rbp-0xc]
     d27:	48 89 c6             	mov    rsi,rax
     d2a:	48 8d 3d 6c 04 00 00 	lea    rdi,[rip+0x46c]        # 119d <__cxa_finalize@plt+0x85d>
     d31:	b8 00 00 00 00       	mov    eax,0x0
     d36:	e8 e5 fb ff ff       	call   920 <__isoc99_scanf@plt>
     d3b:	48 8d 3d d4 04 00 00 	lea    rdi,[rip+0x4d4]        # 1216 <__cxa_finalize@plt+0x8d6>
     d42:	b8 00 00 00 00       	mov    eax,0x0
     d47:	e8 64 fb ff ff       	call   8b0 <printf@plt>
     d4c:	8b 45 f4             	mov    eax,DWORD PTR [rbp-0xc]
     d4f:	83 f8 13             	cmp    eax,0x13
     d52:	77 53                	ja     da7 <__cxa_finalize@plt+0x467>
     d54:	8b 45 f4             	mov    eax,DWORD PTR [rbp-0xc]
     d57:	89 c0                	mov    eax,eax
     d59:	48 c1 e0 04          	shl    rax,0x4
     d5d:	48 89 c2             	mov    rdx,rax
     d60:	48 8d 05 f9 12 20 00 	lea    rax,[rip+0x2012f9]        # 202060 <stderr@@GLIBC_2.2.5+0x20>
     d67:	48 8b 04 02          	mov    rax,QWORD PTR [rdx+rax*1]
     d6b:	48 85 c0             	test   rax,rax
     d6e:	74 37                	je     da7 <__cxa_finalize@plt+0x467>
     d70:	8b 45 f4             	mov    eax,DWORD PTR [rbp-0xc]
     d73:	89 c0                	mov    eax,eax
     d75:	48 c1 e0 04          	shl    rax,0x4
     d79:	48 89 c2             	mov    rdx,rax
     d7c:	48 8d 05 e5 12 20 00 	lea    rax,[rip+0x2012e5]        # 202068 <stderr@@GLIBC_2.2.5+0x28>
     d83:	8b 14 02             	mov    edx,DWORD PTR [rdx+rax*1]
     d86:	8b 45 f4             	mov    eax,DWORD PTR [rbp-0xc]
     d89:	89 c0                	mov    eax,eax
     d8b:	48 c1 e0 04          	shl    rax,0x4
     d8f:	48 89 c1             	mov    rcx,rax
     d92:	48 8d 05 c7 12 20 00 	lea    rax,[rip+0x2012c7]        # 202060 <stderr@@GLIBC_2.2.5+0x20>
     d99:	48 8b 04 01          	mov    rax,QWORD PTR [rcx+rax*1]
     d9d:	89 d6                	mov    esi,edx
     d9f:	48 89 c7             	mov    rdi,rax
     da2:	e8 b3 fc ff ff       	call   a5a <__cxa_finalize@plt+0x11a>
     da7:	90                   	nop
     da8:	48 8b 45 f8          	mov    rax,QWORD PTR [rbp-0x8]
     dac:	64 48 33 04 25 28 00 	xor    rax,QWORD PTR fs:0x28
     db3:	00 00 
     db5:	74 05                	je     dbc <__cxa_finalize@plt+0x47c>
     db7:	e8 e4 fa ff ff       	call   8a0 <__stack_chk_fail@plt>
     dbc:	c9                   	leave  
     dbd:	c3                   	ret    
     dbe:	55                   	push   rbp
     dbf:	48 89 e5             	mov    rbp,rsp
     dc2:	48 83 ec 10          	sub    rsp,0x10
     dc6:	64 48 8b 04 25 28 00 	mov    rax,QWORD PTR fs:0x28
     dcd:	00 00 
     dcf:	48 89 45 f8          	mov    QWORD PTR [rbp-0x8],rax
     dd3:	31 c0                	xor    eax,eax
     dd5:	48 8d 3d 33 04 00 00 	lea    rdi,[rip+0x433]        # 120f <__cxa_finalize@plt+0x8cf>
     ddc:	b8 00 00 00 00       	mov    eax,0x0
     de1:	e8 ca fa ff ff       	call   8b0 <printf@plt>
     de6:	48 8d 45 f4          	lea    rax,[rbp-0xc]
     dea:	48 89 c6             	mov    rsi,rax
     ded:	48 8d 3d a9 03 00 00 	lea    rdi,[rip+0x3a9]        # 119d <__cxa_finalize@plt+0x85d>
     df4:	b8 00 00 00 00       	mov    eax,0x0
     df9:	e8 22 fb ff ff       	call   920 <__isoc99_scanf@plt>
     dfe:	48 8d 3d 11 04 00 00 	lea    rdi,[rip+0x411]        # 1216 <__cxa_finalize@plt+0x8d6>
     e05:	b8 00 00 00 00       	mov    eax,0x0
     e0a:	e8 a1 fa ff ff       	call   8b0 <printf@plt>
     e0f:	8b 45 f4             	mov    eax,DWORD PTR [rbp-0xc]
     e12:	83 f8 13             	cmp    eax,0x13
     e15:	77 3b                	ja     e52 <__cxa_finalize@plt+0x512>
     e17:	8b 45 f4             	mov    eax,DWORD PTR [rbp-0xc]
     e1a:	89 c0                	mov    eax,eax
     e1c:	48 c1 e0 04          	shl    rax,0x4
     e20:	48 89 c2             	mov    rdx,rax
     e23:	48 8d 05 36 12 20 00 	lea    rax,[rip+0x201236]        # 202060 <stderr@@GLIBC_2.2.5+0x20>
     e2a:	48 8b 04 02          	mov    rax,QWORD PTR [rdx+rax*1]
     e2e:	48 85 c0             	test   rax,rax
     e31:	74 1f                	je     e52 <__cxa_finalize@plt+0x512>
     e33:	8b 45 f4             	mov    eax,DWORD PTR [rbp-0xc]
     e36:	89 c0                	mov    eax,eax
     e38:	48 c1 e0 04          	shl    rax,0x4
     e3c:	48 89 c2             	mov    rdx,rax
     e3f:	48 8d 05 1a 12 20 00 	lea    rax,[rip+0x20121a]        # 202060 <stderr@@GLIBC_2.2.5+0x20>
     e46:	48 8b 04 02          	mov    rax,QWORD PTR [rdx+rax*1]
     e4a:	48 89 c7             	mov    rdi,rax
     e4d:	e8 3e fa ff ff       	call   890 <puts@plt>
     e52:	90                   	nop
     e53:	48 8b 45 f8          	mov    rax,QWORD PTR [rbp-0x8]
     e57:	64 48 33 04 25 28 00 	xor    rax,QWORD PTR fs:0x28
     e5e:	00 00 
     e60:	74 05                	je     e67 <__cxa_finalize@plt+0x527>
     e62:	e8 39 fa ff ff       	call   8a0 <__stack_chk_fail@plt>
     e67:	c9                   	leave  
     e68:	c3                   	ret    
     e69:	55                   	push   rbp
     e6a:	48 89 e5             	mov    rbp,rsp
     e6d:	48 83 ec 10          	sub    rsp,0x10
     e71:	64 48 8b 04 25 28 00 	mov    rax,QWORD PTR fs:0x28
     e78:	00 00 
     e7a:	48 89 45 f8          	mov    QWORD PTR [rbp-0x8],rax
     e7e:	31 c0                	xor    eax,eax
     e80:	48 8d 3d 88 03 00 00 	lea    rdi,[rip+0x388]        # 120f <__cxa_finalize@plt+0x8cf>
     e87:	b8 00 00 00 00       	mov    eax,0x0
     e8c:	e8 1f fa ff ff       	call   8b0 <printf@plt>
     e91:	48 8d 45 f4          	lea    rax,[rbp-0xc]
     e95:	48 89 c6             	mov    rsi,rax
     e98:	48 8d 3d fe 02 00 00 	lea    rdi,[rip+0x2fe]        # 119d <__cxa_finalize@plt+0x85d>
     e9f:	b8 00 00 00 00       	mov    eax,0x0
     ea4:	e8 77 fa ff ff       	call   920 <__isoc99_scanf@plt>
     ea9:	8b 45 f4             	mov    eax,DWORD PTR [rbp-0xc]
     eac:	83 f8 13             	cmp    eax,0x13
     eaf:	77 56                	ja     f07 <__cxa_finalize@plt+0x5c7>
     eb1:	8b 45 f4             	mov    eax,DWORD PTR [rbp-0xc]
     eb4:	89 c0                	mov    eax,eax
     eb6:	48 c1 e0 04          	shl    rax,0x4
     eba:	48 89 c2             	mov    rdx,rax
     ebd:	48 8d 05 9c 11 20 00 	lea    rax,[rip+0x20119c]        # 202060 <stderr@@GLIBC_2.2.5+0x20>
     ec4:	48 8b 04 02          	mov    rax,QWORD PTR [rdx+rax*1]
     ec8:	48 85 c0             	test   rax,rax
     ecb:	74 3a                	je     f07 <__cxa_finalize@plt+0x5c7>
     ecd:	8b 45 f4             	mov    eax,DWORD PTR [rbp-0xc]
     ed0:	89 c0                	mov    eax,eax
     ed2:	48 c1 e0 04          	shl    rax,0x4
     ed6:	48 89 c2             	mov    rdx,rax
     ed9:	48 8d 05 80 11 20 00 	lea    rax,[rip+0x201180]        # 202060 <stderr@@GLIBC_2.2.5+0x20>
     ee0:	48 8b 04 02          	mov    rax,QWORD PTR [rdx+rax*1]
     ee4:	48 89 c7             	mov    rdi,rax
     ee7:	e8 94 f9 ff ff       	call   880 <free@plt>
     eec:	8b 45 f4             	mov    eax,DWORD PTR [rbp-0xc]
     eef:	89 c0                	mov    eax,eax
     ef1:	48 c1 e0 04          	shl    rax,0x4
     ef5:	48 89 c2             	mov    rdx,rax
     ef8:	48 8d 05 61 11 20 00 	lea    rax,[rip+0x201161]        # 202060 <stderr@@GLIBC_2.2.5+0x20>
     eff:	48 c7 04 02 00 00 00 	mov    QWORD PTR [rdx+rax*1],0x0
     f06:	00 
     f07:	90                   	nop
     f08:	48 8b 45 f8          	mov    rax,QWORD PTR [rbp-0x8]
     f0c:	64 48 33 04 25 28 00 	xor    rax,QWORD PTR fs:0x28
     f13:	00 00 
     f15:	74 05                	je     f1c <__cxa_finalize@plt+0x5dc>
     f17:	e8 84 f9 ff ff       	call   8a0 <__stack_chk_fail@plt>
     f1c:	c9                   	leave  
     f1d:	c3                   	ret    
     f1e:	55                   	push   rbp
     f1f:	48 89 e5             	mov    rbp,rsp
     f22:	48 8d 3d f7 02 00 00 	lea    rdi,[rip+0x2f7]        # 1220 <__cxa_finalize@plt+0x8e0>
     f29:	e8 62 f9 ff ff       	call   890 <puts@plt>
     f2e:	48 8d 3d 00 03 00 00 	lea    rdi,[rip+0x300]        # 1235 <__cxa_finalize@plt+0x8f5>
     f35:	e8 56 f9 ff ff       	call   890 <puts@plt>
     f3a:	48 8d 3d 07 03 00 00 	lea    rdi,[rip+0x307]        # 1248 <__cxa_finalize@plt+0x908>
     f41:	e8 4a f9 ff ff       	call   890 <puts@plt>
     f46:	48 8d 3d 0e 03 00 00 	lea    rdi,[rip+0x30e]        # 125b <__cxa_finalize@plt+0x91b>
     f4d:	e8 3e f9 ff ff       	call   890 <puts@plt>
     f52:	48 8d 3d 13 03 00 00 	lea    rdi,[rip+0x313]        # 126c <__cxa_finalize@plt+0x92c>
     f59:	e8 32 f9 ff ff       	call   890 <puts@plt>
     f5e:	48 8d 3d 35 02 00 00 	lea    rdi,[rip+0x235]        # 119a <__cxa_finalize@plt+0x85a>
     f65:	b8 00 00 00 00       	mov    eax,0x0
     f6a:	e8 41 f9 ff ff       	call   8b0 <printf@plt>
     f6f:	90                   	nop
     f70:	5d                   	pop    rbp
     f71:	c3                   	ret    
     f72:	55                   	push   rbp
     f73:	48 89 e5             	mov    rbp,rsp
     f76:	48 83 ec 10          	sub    rsp,0x10
     f7a:	89 7d fc             	mov    DWORD PTR [rbp-0x4],edi
     f7d:	bf ff ff ff ff       	mov    edi,0xffffffff
     f82:	e8 a9 f9 ff ff       	call   930 <exit@plt>
     f87:	55                   	push   rbp
     f88:	48 89 e5             	mov    rbp,rsp
     f8b:	48 83 ec 10          	sub    rsp,0x10
     f8f:	64 48 8b 04 25 28 00 	mov    rax,QWORD PTR fs:0x28
     f96:	00 00 
     f98:	48 89 45 f8          	mov    QWORD PTR [rbp-0x8],rax
     f9c:	31 c0                	xor    eax,eax
     f9e:	48 8b 05 8b 10 20 00 	mov    rax,QWORD PTR [rip+0x20108b]        # 202030 <stdin@@GLIBC_2.2.5>
     fa5:	b9 00 00 00 00       	mov    ecx,0x0
     faa:	ba 02 00 00 00       	mov    edx,0x2
     faf:	be 00 00 00 00       	mov    esi,0x0
     fb4:	48 89 c7             	mov    rdi,rax
     fb7:	e8 54 f9 ff ff       	call   910 <setvbuf@plt>
     fbc:	48 8b 05 5d 10 20 00 	mov    rax,QWORD PTR [rip+0x20105d]        # 202020 <stdout@@GLIBC_2.2.5>
     fc3:	b9 00 00 00 00       	mov    ecx,0x0
     fc8:	ba 02 00 00 00       	mov    edx,0x2
     fcd:	be 00 00 00 00       	mov    esi,0x0
     fd2:	48 89 c7             	mov    rdi,rax
     fd5:	e8 36 f9 ff ff       	call   910 <setvbuf@plt>
     fda:	48 8b 05 5f 10 20 00 	mov    rax,QWORD PTR [rip+0x20105f]        # 202040 <stderr@@GLIBC_2.2.5>
     fe1:	b9 00 00 00 00       	mov    ecx,0x0
     fe6:	ba 02 00 00 00       	mov    edx,0x2
     feb:	be 00 00 00 00       	mov    esi,0x0
     ff0:	48 89 c7             	mov    rdi,rax
     ff3:	e8 18 f9 ff ff       	call   910 <setvbuf@plt>
     ff8:	bf 3c 00 00 00       	mov    edi,0x3c
     ffd:	e8 be f8 ff ff       	call   8c0 <alarm@plt>
    1002:	48 8d 35 69 ff ff ff 	lea    rsi,[rip+0xffffffffffffff69]        # f72 <__cxa_finalize@plt+0x632>
    1009:	bf 0e 00 00 00       	mov    edi,0xe
    100e:	e8 dd f8 ff ff       	call   8f0 <signal@plt>
    1013:	48 8d 3d 61 02 00 00 	lea    rdi,[rip+0x261]        # 127b <__cxa_finalize@plt+0x93b>
    101a:	e8 71 f8 ff ff       	call   890 <puts@plt>
    101f:	e8 fa fe ff ff       	call   f1e <__cxa_finalize@plt+0x5de>
    1024:	48 8d 45 f4          	lea    rax,[rbp-0xc]
    1028:	48 89 c6             	mov    rsi,rax
    102b:	48 8d 3d 6b 01 00 00 	lea    rdi,[rip+0x16b]        # 119d <__cxa_finalize@plt+0x85d>
    1032:	b8 00 00 00 00       	mov    eax,0x0
    1037:	e8 e4 f8 ff ff       	call   920 <__isoc99_scanf@plt>
    103c:	90                   	nop
    103d:	e8 9e f8 ff ff       	call   8e0 <getchar@plt>
    1042:	83 f8 0a             	cmp    eax,0xa
    1045:	75 f6                	jne    103d <__cxa_finalize@plt+0x6fd>
    1047:	8b 45 f4             	mov    eax,DWORD PTR [rbp-0xc]
    104a:	83 f8 05             	cmp    eax,0x5
    104d:	77 61                	ja     10b0 <__cxa_finalize@plt+0x770>
    104f:	89 c0                	mov    eax,eax
    1051:	48 8d 14 85 00 00 00 	lea    rdx,[rax*4+0x0]
    1058:	00 
    1059:	48 8d 05 54 02 00 00 	lea    rax,[rip+0x254]        # 12b4 <__cxa_finalize@plt+0x974>
    1060:	8b 04 02             	mov    eax,DWORD PTR [rdx+rax*1]
    1063:	48 63 d0             	movsxd rdx,eax
    1066:	48 8d 05 47 02 00 00 	lea    rax,[rip+0x247]        # 12b4 <__cxa_finalize@plt+0x974>
    106d:	48 01 d0             	add    rax,rdx
    1070:	ff e0                	jmp    rax
    1072:	e8 94 fa ff ff       	call   b0b <__cxa_finalize@plt+0x1cb>
    1077:	eb 44                	jmp    10bd <__cxa_finalize@plt+0x77d>
    1079:	e8 7d fc ff ff       	call   cfb <__cxa_finalize@plt+0x3bb>
    107e:	eb 3d                	jmp    10bd <__cxa_finalize@plt+0x77d>
    1080:	e8 39 fd ff ff       	call   dbe <__cxa_finalize@plt+0x47e>
    1085:	eb 36                	jmp    10bd <__cxa_finalize@plt+0x77d>
    1087:	e8 dd fd ff ff       	call   e69 <__cxa_finalize@plt+0x529>
    108c:	eb 2f                	jmp    10bd <__cxa_finalize@plt+0x77d>
    108e:	48 8d 3d 02 02 00 00 	lea    rdi,[rip+0x202]        # 1297 <__cxa_finalize@plt+0x957>
    1095:	e8 f6 f7 ff ff       	call   890 <puts@plt>
    109a:	b8 00 00 00 00       	mov    eax,0x0
    109f:	48 8b 4d f8          	mov    rcx,QWORD PTR [rbp-0x8]
    10a3:	64 48 33 0c 25 28 00 	xor    rcx,QWORD PTR fs:0x28
    10aa:	00 00 
    10ac:	74 19                	je     10c7 <__cxa_finalize@plt+0x787>
    10ae:	eb 12                	jmp    10c2 <__cxa_finalize@plt+0x782>
    10b0:	48 8d 3d eb 01 00 00 	lea    rdi,[rip+0x1eb]        # 12a2 <__cxa_finalize@plt+0x962>
    10b7:	e8 d4 f7 ff ff       	call   890 <puts@plt>
    10bc:	90                   	nop
    10bd:	e9 5d ff ff ff       	jmp    101f <__cxa_finalize@plt+0x6df>
    10c2:	e8 d9 f7 ff ff       	call   8a0 <__stack_chk_fail@plt>
    10c7:	c9                   	leave  
    10c8:	c3                   	ret    
    10c9:	0f 1f 80 00 00 00 00 	nop    DWORD PTR [rax+0x0]
    10d0:	41 57                	push   r15
    10d2:	41 56                	push   r14
    10d4:	49 89 d7             	mov    r15,rdx
    10d7:	41 55                	push   r13
    10d9:	41 54                	push   r12
    10db:	4c 8d 25 7e 0c 20 00 	lea    r12,[rip+0x200c7e]        # 201d60 <__cxa_finalize@plt+0x201420>
    10e2:	55                   	push   rbp
    10e3:	48 8d 2d 7e 0c 20 00 	lea    rbp,[rip+0x200c7e]        # 201d68 <__cxa_finalize@plt+0x201428>
    10ea:	53                   	push   rbx
    10eb:	41 89 fd             	mov    r13d,edi
    10ee:	49 89 f6             	mov    r14,rsi
    10f1:	4c 29 e5             	sub    rbp,r12
    10f4:	48 83 ec 08          	sub    rsp,0x8
    10f8:	48 c1 fd 03          	sar    rbp,0x3
    10fc:	e8 57 f7 ff ff       	call   858 <free@plt-0x28>
    1101:	48 85 ed             	test   rbp,rbp
    1104:	74 20                	je     1126 <__cxa_finalize@plt+0x7e6>
    1106:	31 db                	xor    ebx,ebx
    1108:	0f 1f 84 00 00 00 00 	nop    DWORD PTR [rax+rax*1+0x0]
    110f:	00 
    1110:	4c 89 fa             	mov    rdx,r15
    1113:	4c 89 f6             	mov    rsi,r14
    1116:	44 89 ef             	mov    edi,r13d
    1119:	41 ff 14 dc          	call   QWORD PTR [r12+rbx*8]
    111d:	48 83 c3 01          	add    rbx,0x1
    1121:	48 39 dd             	cmp    rbp,rbx
    1124:	75 ea                	jne    1110 <__cxa_finalize@plt+0x7d0>
    1126:	48 83 c4 08          	add    rsp,0x8
    112a:	5b                   	pop    rbx
    112b:	5d                   	pop    rbp
    112c:	41 5c                	pop    r12
    112e:	41 5d                	pop    r13
    1130:	41 5e                	pop    r14
    1132:	41 5f                	pop    r15
    1134:	c3                   	ret    
    1135:	90                   	nop
    1136:	66 2e 0f 1f 84 00 00 	nop    WORD PTR cs:[rax+rax*1+0x0]
    113d:	00 00 00 
    1140:	f3 c3                	repz ret 

Disassembly of section .fini:

0000000000001144 <.fini>:
    1144:	48 83 ec 08          	sub    rsp,0x8
    1148:	48 83 c4 08          	add    rsp,0x8
    114c:	c3                   	ret    
